; Function Attrs: mustprogress uwtable
define noundef nonnull align 8 dereferenceable(12) ptr @_ZN2cv15ImageCollection8iteratorppEv(ptr noundef nonnull returned align 8 dereferenceable(12) %0) local_unnamed_addr #4 align 2 {
  %2 = load ptr, ptr %0, align 8, !tbaa !271
  %3 = load ptr, ptr %2, align 8, !tbaa !128
  %4 = getelementptr inbounds nuw i8, ptr %3, i64 56
  %5 = load i32, ptr %4, align 8, !tbaa !264
  %6 = getelementptr inbounds nuw i8, ptr %0, i64 8
  %7 = load i32, ptr %6, align 8, !tbaa !274
  %8 = icmp eq i32 %5, %7
  br i1 %8, label %9, label %17

9:                                                ; preds = %1
  %10 = add nsw i32 %5, 1
  store i32 %10, ptr %4, align 8, !tbaa !264
  %11 = getelementptr inbounds nuw i8, ptr %3, i64 88
  %12 = load ptr, ptr %11, align 8, !tbaa !14
  %13 = load ptr, ptr %12, align 8, !tbaa !25
  %14 = getelementptr inbounds nuw i8, ptr %13, i64 72
  %15 = load ptr, ptr %14, align 8
  %16 = tail call noundef zeroext i1 %15(ptr noundef nonnull align 8 dereferenceable(368) %12)
  %.pre = load i32, ptr %6, align 8, !tbaa !274
  br label %17

17:                                               ; preds = %9, %1
  %18 = phi i32 [ %.pre, %9 ], [ %7, %1 ]
  %19 = add nsw i32 %18, 1
  store i32 %19, ptr %6, align 8, !tbaa !274
  ret ptr %0
}